target datalayout = "e-m:e-p270:32:32-p271:32:32-p272:64:64-i64:64-i128:128-f80:128-n8:16:32:64-S128"
target triple = "x86_64-pc-linux-gnu"

; Function Attrs: nounwind uwtable
define internal i32 @zueci_u_utf32le(i32 noundef %0, ptr noundef %1) #0 {
  %3 = alloca i32, align 4
  %4 = alloca ptr, align 8
  store i32 %0, ptr %3, align 4
  store ptr %1, ptr %4, align 8
  %5 = load i32, ptr %3, align 4
  %6 = trunc i32 %5 to i8
  %7 = load ptr, ptr %4, align 8
  %8 = getelementptr inbounds i8, ptr %7, i64 0
  store i8 %6, ptr %8, align 1
  %9 = load i32, ptr %3, align 4
  %10 = lshr i32 %9, 8
  %11 = trunc i32 %10 to i8
  %12 = load ptr, ptr %4, align 8
  %13 = getelementptr inbounds i8, ptr %12, i64 1
  store i8 %11, ptr %13, align 1
  %14 = load i32, ptr %3, align 4
  %15 = lshr i32 %14, 16
  %16 = trunc i32 %15 to i8
  %17 = load ptr, ptr %4, align 8
  %18 = getelementptr inbounds i8, ptr %17, i64 2
  store i8 %16, ptr %18, align 1
  %19 = load ptr, ptr %4, align 8
  %20 = getelementptr inbounds i8, ptr %19, i64 3
  store i8 0, ptr %20, align 1
  ret i32 4
}