; Function Attrs: mustprogress nofree norecurse nosync nounwind willreturn memory(argmem: write) uwtable
define internal noundef i32 @zueci_u_utf32le(i32 noundef %0, ptr nocapture noundef writeonly %1) #2 {
  %3 = trunc i32 %0 to i8
  store i8 %3, ptr %1, align 1
  %4 = lshr i32 %0, 8
  %5 = trunc i32 %4 to i8
  %6 = getelementptr inbounds i8, ptr %1, i64 1
  store i8 %5, ptr %6, align 1
  %7 = lshr i32 %0, 16
  %8 = trunc i32 %7 to i8
  %9 = getelementptr inbounds i8, ptr %1, i64 2
  store i8 %8, ptr %9, align 1
  %10 = getelementptr inbounds i8, ptr %1, i64 3
  store i8 0, ptr %10, align 1
  ret i32 4
}